; Function Attrs: mustprogress nofree norecurse nosync nounwind willreturn memory(read, inaccessiblemem: none) uwtable
define { ptr, i64 } @_ZNK3net15SpdyHeaderBlock16StringPieceProxycvN4base16BasicStringPieceINSt7__cxx1112basic_stringIcSt11char_traitsIcESaIcEEEEEEv(ptr noundef nonnull readonly align 8 captures(none) dereferenceable(41) %0) local_unnamed_addr #8 align 2 {
  %2 = getelementptr inbounds nuw i8, ptr %0, i64 16
  %3 = load ptr, ptr %0, align 8, !tbaa !3
  %4 = getelementptr inbounds nuw i8, ptr %3, i64 56
  %5 = load ptr, ptr %2, align 8, !tbaa !24
  %6 = icmp eq ptr %5, %4
  br i1 %6, label %9, label %7

7:                                                ; preds = %1
  %8 = getelementptr inbounds nuw i8, ptr %5, i64 32
  %.sroa.01.0.copyload = load ptr, ptr %8, align 8, !tbaa !18
  %.sroa.3.0..sroa_idx = getelementptr inbounds nuw i8, ptr %5, i64 40
  %.sroa.3.0.copyload = load i64, ptr %.sroa.3.0..sroa_idx, align 8, !tbaa !19
  br label %9

9:                                                ; preds = %1, %7
  %.sroa.3.0 = phi i64 [ %.sroa.3.0.copyload, %7 ], [ 0, %1 ]
  %.sroa.01.0 = phi ptr [ %.sroa.01.0.copyload, %7 ], [ null, %1 ]
  %.fca.0.insert = insertvalue { ptr, i64 } poison, ptr %.sroa.01.0, 0
  %.fca.1.insert = insertvalue { ptr, i64 } %.fca.0.insert, i64 %.sroa.3.0, 1
  ret { ptr, i64 } %.fca.1.insert
}